target datalayout = "e-m:e-p270:32:32-p271:32:32-p272:64:64-i64:64-i128:128-f80:128-n8:16:32:64-S128"
target triple = "x86_64-pc-linux-gnu"

%class.QString = type { %struct.QArrayDataPointer }
%struct.QArrayDataPointer = type { ptr, ptr, i64 }
%class.RtpStreamDialog = type { %class.WiresharkDialog.base, ptr, %struct._rtpstream_tapinfo, ptr, ptr, ptr, ptr, ptr, ptr, %class.QMenu, i8, %class.QList.1 }
%class.WiresharkDialog.base = type <{ %class.GeometryStateDialog, ptr, i8, [7 x i8], %class.QString, %class.QList, i32, i8 }>
%class.GeometryStateDialog = type { %class.QDialog, %class.QString }
%class.QDialog = type { %class.QWidget }
%class.QWidget = type { %class.QObject, %class.QPaintDevice.base, ptr }
%class.QObject = type { ptr, %class.QScopedPointer }
%class.QScopedPointer = type { ptr }
%class.QPaintDevice.base = type <{ ptr, i16 }>
%class.QList = type { %struct.QArrayDataPointer.0 }
%struct.QArrayDataPointer.0 = type { ptr, ptr, i64 }
%struct._rtpstream_tapinfo = type { ptr, ptr, ptr, ptr, i32, ptr, ptr, i32, i32, ptr, ptr, ptr, i32, i32 }
%class.QMenu = type { %class.QWidget }
%class.QList.1 = type { %struct.QArrayDataPointer.4 }
%struct.QArrayDataPointer.4 = type { ptr, ptr, i64 }
%class.Ui_RtpStreamDialog = type { ptr, ptr, ptr, ptr, ptr, ptr, ptr, ptr, ptr, ptr, ptr, ptr, ptr, ptr, ptr, ptr, ptr, ptr, ptr, ptr, ptr, ptr, ptr, ptr, ptr }

; Function Attrs: mustprogress uwtable
define void @_ZN15RtpStreamDialog15invertSelectionEv(ptr noundef nonnull align 8 dereferenceable(360) %0) #0 align 2 {
  %2 = alloca ptr, align 8
  %3 = alloca i32, align 4
  %4 = alloca ptr, align 8
  store ptr %0, ptr %2, align 8
  %5 = load ptr, ptr %2, align 8
  %6 = getelementptr inbounds %class.RtpStreamDialog, ptr %5, i32 0, i32 1
  %7 = load ptr, ptr %6, align 8
  %8 = getelementptr inbounds %class.Ui_RtpStreamDialog, ptr %7, i32 0, i32 18
  %9 = load ptr, ptr %8, align 8
  %10 = call noundef zeroext i1 @_ZN7QObject12blockSignalsEb(ptr noundef nonnull align 8 dereferenceable(16) %9, i1 noundef zeroext true) #18
  store i32 0, ptr %3, align 4
  br label %11

11:                                               ; preds = %30, %1
  %12 = load i32, ptr %3, align 4
  %13 = getelementptr inbounds %class.RtpStreamDialog, ptr %5, i32 0, i32 1
  %14 = load ptr, ptr %13, align 8
  %15 = getelementptr inbounds %class.Ui_RtpStreamDialog, ptr %14, i32 0, i32 18
  %16 = load ptr, ptr %15, align 8
  %17 = call noundef i32 @_ZNK11QTreeWidget17topLevelItemCountEv(ptr noundef nonnull align 8 dereferenceable(40) %16)
  %18 = icmp slt i32 %12, %17
  br i1 %18, label %19, label %33

19:                                               ; preds = %11
  %20 = getelementptr inbounds %class.RtpStreamDialog, ptr %5, i32 0, i32 1
  %21 = load ptr, ptr %20, align 8
  %22 = getelementptr inbounds %class.Ui_RtpStreamDialog, ptr %21, i32 0, i32 18
  %23 = load ptr, ptr %22, align 8
  %24 = load i32, ptr %3, align 4
  %25 = call noundef ptr @_ZNK11QTreeWidget12topLevelItemEi(ptr noundef nonnull align 8 dereferenceable(40) %23, i32 noundef %24)
  store ptr %25, ptr %4, align 8
  %26 = load ptr, ptr %4, align 8
  %27 = load ptr, ptr %4, align 8
  %28 = call noundef zeroext i1 @_ZNK15QTreeWidgetItem10isSelectedEv(ptr noundef nonnull align 8 dereferenceable(92) %27)
  %29 = xor i1 %28, true
  call void @_ZN15QTreeWidgetItem11setSelectedEb(ptr noundef nonnull align 8 dereferenceable(92) %26, i1 noundef zeroext %29)
  br label %30

30:                                               ; preds = %19
  %31 = load i32, ptr %3, align 4
  %32 = add i32 %31, 1
  store i32 %32, ptr %3, align 4
  br label %11, !llvm.loop !28

33:                                               ; preds = %11
  %34 = getelementptr inbounds %class.RtpStreamDialog, ptr %5, i32 0, i32 1
  %35 = load ptr, ptr %34, align 8
  %36 = getelementptr inbounds %class.Ui_RtpStreamDialog, ptr %35, i32 0, i32 18
  %37 = load ptr, ptr %36, align 8
  %38 = call noundef zeroext i1 @_ZN7QObject12blockSignalsEb(ptr noundef nonnull align 8 dereferenceable(16) %37, i1 noundef zeroext false) #18
  %39 = load ptr, ptr %5, align 8
  %40 = getelementptr inbounds ptr, ptr %39, i64 58
  %41 = load ptr, ptr %40, align 8
  call void %41(ptr noundef nonnull align 8 dereferenceable(360) %5)
  ret void
}