; Function Attrs: mustprogress uwtable
define void @_ZN15RtpStreamDialog15invertSelectionEv(ptr noundef nonnull align 8 dereferenceable(360) %0) local_unnamed_addr #0 align 2 {
  %2 = getelementptr inbounds i8, ptr %0, i64 136
  %3 = load ptr, ptr %2, align 8
  %4 = getelementptr inbounds i8, ptr %3, i64 144
  %5 = load ptr, ptr %4, align 8
  %6 = tail call noundef zeroext i1 @_ZN7QObject12blockSignalsEb(ptr noundef nonnull align 8 dereferenceable(16) %5, i1 noundef zeroext true) #18
  %7 = load ptr, ptr %2, align 8
  %8 = getelementptr inbounds i8, ptr %7, i64 144
  %9 = load ptr, ptr %8, align 8
  %10 = tail call noundef i32 @_ZNK11QTreeWidget17topLevelItemCountEv(ptr noundef nonnull align 8 dereferenceable(40) %9)
  %11 = icmp sgt i32 %10, 0
  br i1 %11, label %.lr.ph, label %._crit_edge

.lr.ph:                                           ; preds = %1, %.lr.ph
  %.05 = phi i32 [ %18, %.lr.ph ], [ 0, %1 ]
  %12 = load ptr, ptr %2, align 8
  %13 = getelementptr inbounds i8, ptr %12, i64 144
  %14 = load ptr, ptr %13, align 8
  %15 = tail call noundef ptr @_ZNK11QTreeWidget12topLevelItemEi(ptr noundef nonnull align 8 dereferenceable(40) %14, i32 noundef %.05)
  %16 = tail call noundef zeroext i1 @_ZNK15QTreeWidgetItem10isSelectedEv(ptr noundef nonnull align 8 dereferenceable(92) %15)
  %17 = xor i1 %16, true
  tail call void @_ZN15QTreeWidgetItem11setSelectedEb(ptr noundef nonnull align 8 dereferenceable(92) %15, i1 noundef zeroext %17)
  %18 = add nuw nsw i32 %.05, 1
  %19 = load ptr, ptr %2, align 8
  %20 = getelementptr inbounds i8, ptr %19, i64 144
  %21 = load ptr, ptr %20, align 8
  %22 = tail call noundef i32 @_ZNK11QTreeWidget17topLevelItemCountEv(ptr noundef nonnull align 8 dereferenceable(40) %21)
  %23 = icmp slt i32 %18, %22
  br i1 %23, label %.lr.ph, label %._crit_edge, !llvm.loop !94

._crit_edge:                                      ; preds = %.lr.ph, %1
  %24 = load ptr, ptr %2, align 8
  %25 = getelementptr inbounds i8, ptr %24, i64 144
  %26 = load ptr, ptr %25, align 8
  %27 = tail call noundef zeroext i1 @_ZN7QObject12blockSignalsEb(ptr noundef nonnull align 8 dereferenceable(16) %26, i1 noundef zeroext false) #18
  %28 = load ptr, ptr %0, align 8
  %29 = getelementptr inbounds i8, ptr %28, i64 464
  %30 = load ptr, ptr %29, align 8
  tail call void %30(ptr noundef nonnull align 8 dereferenceable(360) %0)
  ret void
}